target datalayout = "e-m:e-p270:32:32-p271:32:32-p272:64:64-i64:64-i128:128-f80:128-n8:16:32:64-S128"
target triple = "x86_64-pc-linux-gnu"

%struct.Abc_Obj_t_ = type { ptr, ptr, i32, i32, %struct.Vec_Int_t_, %struct.Vec_Int_t_, %union.anon, %union.anon.0 }
%struct.Vec_Int_t_ = type { i32, i32, ptr }
%union.anon = type { ptr }
%union.anon.0 = type { ptr }
%struct.Abc_Ntk_t_ = type { i32, i32, ptr, ptr, ptr, ptr, ptr, ptr, ptr, ptr, ptr, ptr, ptr, [11 x i32], i32, i32, i32, i32, ptr, i32, ptr, ptr, i32, i32, i32, double, i32, %struct.Vec_Int_t_, ptr, ptr, ptr, ptr, ptr, float, i32, ptr, ptr, ptr, ptr, ptr, ptr, ptr, ptr, ptr, ptr, ptr, ptr, ptr, ptr, ptr, ptr, ptr, ptr, ptr, ptr, ptr, ptr }
%struct.Vec_Ptr_t_ = type { i32, i32, ptr }

; Function Attrs: inlinehint nounwind uwtable
define internal ptr @Vec_PtrEntry(ptr noundef %0, i32 noundef %1) #2 {
  %3 = alloca ptr, align 8
  %4 = alloca i32, align 4
  store ptr %0, ptr %3, align 8, !tbaa !37
  store i32 %1, ptr %4, align 4, !tbaa !31
  %5 = load ptr, ptr %3, align 8, !tbaa !37
  %6 = getelementptr inbounds nuw %struct.Vec_Ptr_t_, ptr %5, i32 0, i32 2
  %7 = load ptr, ptr %6, align 8, !tbaa !28
  %8 = load i32, ptr %4, align 4, !tbaa !31
  %9 = sext i32 %8 to i64
  %10 = getelementptr inbounds ptr, ptr %7, i64 %9
  %11 = load ptr, ptr %10, align 8, !tbaa !32
  ret ptr %11
}

; Function Attrs: inlinehint nounwind uwtable
define internal i32 @Vec_IntEntry(ptr noundef %0, i32 noundef %1) #2 {
  %3 = alloca ptr, align 8
  %4 = alloca i32, align 4
  store ptr %0, ptr %3, align 8, !tbaa !48
  store i32 %1, ptr %4, align 4, !tbaa !31
  %5 = load ptr, ptr %3, align 8, !tbaa !48
  %6 = getelementptr inbounds nuw %struct.Vec_Int_t_, ptr %5, i32 0, i32 2
  %7 = load ptr, ptr %6, align 8, !tbaa !52
  %8 = load i32, ptr %4, align 4, !tbaa !31
  %9 = sext i32 %8 to i64
  %10 = getelementptr inbounds i32, ptr %7, i64 %9
  %11 = load i32, ptr %10, align 4, !tbaa !31
  ret i32 %11
}

; Function Attrs: inlinehint nounwind uwtable
define internal i32 @Abc_ObjIsLatch(ptr noundef %0) #2 {
  %2 = alloca ptr, align 8
  store ptr %0, ptr %2, align 8, !tbaa !3
  %3 = load ptr, ptr %2, align 8, !tbaa !3
  %4 = getelementptr inbounds nuw %struct.Abc_Obj_t_, ptr %3, i32 0, i32 3
  %5 = load i32, ptr %4, align 4
  %6 = and i32 %5, 15
  %7 = icmp eq i32 %6, 8
  %8 = zext i1 %7 to i32
  ret i32 %8
}

; Function Attrs: inlinehint nounwind uwtable
define internal ptr @Abc_NtkBox(ptr noundef %0, i32 noundef %1) #2 {
  %3 = alloca ptr, align 8
  %4 = alloca i32, align 4
  store ptr %0, ptr %3, align 8, !tbaa !33
  store i32 %1, ptr %4, align 4, !tbaa !31
  %5 = load ptr, ptr %3, align 8, !tbaa !33
  %6 = getelementptr inbounds nuw %struct.Abc_Ntk_t_, ptr %5, i32 0, i32 11
  %7 = load ptr, ptr %6, align 8, !tbaa !34
  %8 = load i32, ptr %4, align 4, !tbaa !31
  %9 = call ptr @Vec_PtrEntry(ptr noundef %7, i32 noundef %8)
  ret ptr %9
}

; Function Attrs: inlinehint nounwind uwtable
define internal i32 @Vec_PtrSize(ptr noundef %0) #2 {
  %2 = alloca ptr, align 8
  store ptr %0, ptr %2, align 8, !tbaa !37
  %3 = load ptr, ptr %2, align 8, !tbaa !37
  %4 = getelementptr inbounds nuw %struct.Vec_Ptr_t_, ptr %3, i32 0, i32 1
  %5 = load i32, ptr %4, align 4, !tbaa !38
  ret i32 %5
}

; Function Attrs: nounwind uwtable
define void @Abc_NtkInsertLatchValues(ptr noundef %0, ptr noundef %1) #0 {
  %3 = alloca ptr, align 8
  %4 = alloca ptr, align 8
  %5 = alloca ptr, align 8
  %6 = alloca i32, align 4
  store ptr %0, ptr %3, align 8, !tbaa !33
  store ptr %1, ptr %4, align 8, !tbaa !48
  call void @llvm.lifetime.start.p0(i64 8, ptr %5) #7
  call void @llvm.lifetime.start.p0(i64 4, ptr %6) #7
  store i32 0, ptr %6, align 4, !tbaa !31
  br label %7

7:                                                ; preds = %42, %2
  %8 = load i32, ptr %6, align 4, !tbaa !31
  %9 = load ptr, ptr %3, align 8, !tbaa !33
  %10 = getelementptr inbounds nuw %struct.Abc_Ntk_t_, ptr %9, i32 0, i32 11
  %11 = load ptr, ptr %10, align 8, !tbaa !34
  %12 = call i32 @Vec_PtrSize(ptr noundef %11)
  %13 = icmp slt i32 %8, %12
  br i1 %13, label %14, label %18

14:                                               ; preds = %7
  %15 = load ptr, ptr %3, align 8, !tbaa !33
  %16 = load i32, ptr %6, align 4, !tbaa !31
  %17 = call ptr @Abc_NtkBox(ptr noundef %15, i32 noundef %16)
  store ptr %17, ptr %5, align 8, !tbaa !3
  br label %18

18:                                               ; preds = %14, %7
  %19 = phi i1 [ false, %7 ], [ true, %14 ]
  br i1 %19, label %20, label %45

20:                                               ; preds = %18
  %21 = load ptr, ptr %5, align 8, !tbaa !3
  %22 = call i32 @Abc_ObjIsLatch(ptr noundef %21)
  %23 = icmp ne i32 %22, 0
  br i1 %23, label %25, label %24

24:                                               ; preds = %20
  br label %41

25:                                               ; preds = %20
  %26 = load ptr, ptr %4, align 8, !tbaa !48
  %27 = icmp ne ptr %26, null
  br i1 %27, label %28, label %34

28:                                               ; preds = %25
  %29 = load ptr, ptr %4, align 8, !tbaa !48
  %30 = load i32, ptr %6, align 4, !tbaa !31
  %31 = call i32 @Vec_IntEntry(ptr noundef %29, i32 noundef %30)
  %32 = icmp ne i32 %31, 0
  %33 = select i1 %32, i32 2, i32 1
  br label %35

34:                                               ; preds = %25
  br label %35

35:                                               ; preds = %34, %28
  %36 = phi i32 [ %33, %28 ], [ 3, %34 ]
  %37 = sext i32 %36 to i64
  %38 = inttoptr i64 %37 to ptr
  %39 = load ptr, ptr %5, align 8, !tbaa !3
  %40 = getelementptr inbounds nuw %struct.Abc_Obj_t_, ptr %39, i32 0, i32 6
  store ptr %38, ptr %40, align 8, !tbaa !47
  br label %41

41:                                               ; preds = %35, %24
  br label %42

42:                                               ; preds = %41
  %43 = load i32, ptr %6, align 4, !tbaa !31
  %44 = add nsw i32 %43, 1
  store i32 %44, ptr %6, align 4, !tbaa !31
  br label %7, !llvm.loop !55

45:                                               ; preds = %18
  call void @llvm.lifetime.end.p0(i64 4, ptr %6) #7
  call void @llvm.lifetime.end.p0(i64 8, ptr %5) #7
  ret void
}