; Function Attrs: nofree norecurse nosync nounwind memory(readwrite, inaccessiblemem: none) uwtable
define void @Abc_NtkInsertLatchValues(ptr noundef readonly captures(none) %0, ptr noundef readonly %1) local_unnamed_addr #6 {
  %3 = getelementptr inbounds nuw i8, ptr %0, i64 80
  %4 = load ptr, ptr %3, align 8, !tbaa !32
  %5 = getelementptr i8, ptr %4, i64 4
  %.val1215 = load i32, ptr %5, align 4, !tbaa !33
  %6 = icmp sgt i32 %.val1215, 0
  br i1 %6, label %.lr.ph, label %.critedge

.lr.ph:                                           ; preds = %2
  %.not10 = icmp eq ptr %1, null
  %7 = getelementptr i8, ptr %1, i64 8
  br i1 %.not10, label %.lr.ph.split.us, label %.lr.ph.split

.lr.ph.split.us:                                  ; preds = %.lr.ph, %16
  %8 = phi ptr [ %17, %16 ], [ %4, %.lr.ph ]
  %indvars.iv19 = phi i64 [ %indvars.iv.next20, %16 ], [ 0, %.lr.ph ]
  %9 = getelementptr i8, ptr %8, i64 8
  %.val13.val.us = load ptr, ptr %9, align 8, !tbaa !29
  %10 = getelementptr inbounds nuw ptr, ptr %.val13.val.us, i64 %indvars.iv19
  %11 = load ptr, ptr %10, align 8, !tbaa !31
  %12 = getelementptr i8, ptr %11, i64 20
  %.val.us = load i32, ptr %12, align 4
  %13 = and i32 %.val.us, 15
  %.not.us = icmp eq i32 %13, 8
  br i1 %.not.us, label %14, label %16

14:                                               ; preds = %.lr.ph.split.us
  %15 = getelementptr inbounds nuw i8, ptr %11, i64 56
  store ptr inttoptr (i64 3 to ptr), ptr %15, align 8, !tbaa !42
  %.pre22 = load ptr, ptr %3, align 8, !tbaa !32
  br label %16

16:                                               ; preds = %14, %.lr.ph.split.us
  %17 = phi ptr [ %.pre22, %14 ], [ %8, %.lr.ph.split.us ]
  %indvars.iv.next20 = add nuw nsw i64 %indvars.iv19, 1
  %18 = getelementptr i8, ptr %17, i64 4
  %.val12.us = load i32, ptr %18, align 4, !tbaa !33
  %19 = sext i32 %.val12.us to i64
  %20 = icmp slt i64 %indvars.iv.next20, %19
  br i1 %20, label %.lr.ph.split.us, label %.critedge, !llvm.loop !49

.lr.ph.split:                                     ; preds = %.lr.ph, %32
  %21 = phi ptr [ %33, %32 ], [ %4, %.lr.ph ]
  %indvars.iv = phi i64 [ %indvars.iv.next, %32 ], [ 0, %.lr.ph ]
  %22 = getelementptr i8, ptr %21, i64 8
  %.val13.val = load ptr, ptr %22, align 8, !tbaa !29
  %23 = getelementptr inbounds nuw ptr, ptr %.val13.val, i64 %indvars.iv
  %24 = load ptr, ptr %23, align 8, !tbaa !31
  %25 = getelementptr i8, ptr %24, i64 20
  %.val = load i32, ptr %25, align 4
  %26 = and i32 %.val, 15
  %.not = icmp eq i32 %26, 8
  br i1 %.not, label %27, label %32

27:                                               ; preds = %.lr.ph.split
  %.val14 = load ptr, ptr %7, align 8, !tbaa !46
  %28 = getelementptr inbounds nuw i32, ptr %.val14, i64 %indvars.iv
  %29 = load i32, ptr %28, align 4, !tbaa !28
  %.not11 = icmp eq i32 %29, 0
  %30 = select i1 %.not11, ptr inttoptr (i64 1 to ptr), ptr inttoptr (i64 2 to ptr)
  %31 = getelementptr inbounds nuw i8, ptr %24, i64 56
  store ptr %30, ptr %31, align 8, !tbaa !42
  %.pre = load ptr, ptr %3, align 8, !tbaa !32
  br label %32

32:                                               ; preds = %27, %.lr.ph.split
  %33 = phi ptr [ %.pre, %27 ], [ %21, %.lr.ph.split ]
  %indvars.iv.next = add nuw nsw i64 %indvars.iv, 1
  %34 = getelementptr i8, ptr %33, i64 4
  %.val12 = load i32, ptr %34, align 4, !tbaa !33
  %35 = sext i32 %.val12 to i64
  %36 = icmp slt i64 %indvars.iv.next, %35
  br i1 %36, label %.lr.ph.split, label %.critedge, !llvm.loop !49

.critedge:                                        ; preds = %32, %16, %2
  ret void
}